target datalayout = "e-m:e-p270:32:32-p271:32:32-p272:64:64-i64:64-i128:128-f80:128-n8:16:32:64-S128"
target triple = "x86_64-pc-linux-gnu"

%struct.ident_t = type { i32, i32, i32, i32, ptr }
%"class.gmx::ArrayRef.0" = type { %"struct.gmx::ArrayRefIter.1", %"struct.gmx::ArrayRefIter.1" }
%"struct.gmx::ArrayRefIter.1" = type { ptr }
%"class.gmx::ArrayRef" = type { %"struct.gmx::ArrayRefIter", %"struct.gmx::ArrayRefIter" }
%"struct.gmx::ArrayRefIter" = type { ptr }

@3 = private unnamed_addr constant %struct.ident_t { i32 0, i32 2, i32 0, i32 22, ptr @0 }, align 8

; Function Attrs: inlinehint mustprogress nounwind uwtable
define internal void @_ZL9copy_dvecPKdPd(ptr noundef %0, ptr noundef %1) #9 {
  %3 = alloca ptr, align 8
  %4 = alloca ptr, align 8
  store ptr %0, ptr %3, align 8, !tbaa !10
  store ptr %1, ptr %4, align 8, !tbaa !10
  %5 = load ptr, ptr %3, align 8, !tbaa !10
  %6 = getelementptr inbounds double, ptr %5, i64 0
  %7 = load double, ptr %6, align 8, !tbaa !13
  %8 = load ptr, ptr %4, align 8, !tbaa !10
  %9 = getelementptr inbounds double, ptr %8, i64 0
  store double %7, ptr %9, align 8, !tbaa !13
  %10 = load ptr, ptr %3, align 8, !tbaa !10
  %11 = getelementptr inbounds double, ptr %10, i64 1
  %12 = load double, ptr %11, align 8, !tbaa !13
  %13 = load ptr, ptr %4, align 8, !tbaa !10
  %14 = getelementptr inbounds double, ptr %13, i64 1
  store double %12, ptr %14, align 8, !tbaa !13
  %15 = load ptr, ptr %3, align 8, !tbaa !10
  %16 = getelementptr inbounds double, ptr %15, i64 2
  %17 = load double, ptr %16, align 8, !tbaa !13
  %18 = load ptr, ptr %4, align 8, !tbaa !10
  %19 = getelementptr inbounds double, ptr %18, i64 2
  store double %17, ptr %19, align 8, !tbaa !13
  ret void
}

; Function Attrs: mustprogress uwtable
define void @_Z7calc_muiiN3gmx8ArrayRefIKNS_11BasicVectorIfEEEENS0_IKfEES6_bPdS7_(i32 noundef %0, i32 noundef %1, ptr %2, ptr %3, ptr %4, ptr %5, ptr noundef byval(%"class.gmx::ArrayRef.0") align 8 %6, i1 noundef zeroext %7, ptr noundef %8, ptr noundef %9) #0 {
  %11 = alloca %"class.gmx::ArrayRef", align 8
  %12 = alloca %"class.gmx::ArrayRef.0", align 8
  %13 = alloca i32, align 4
  %14 = alloca i32, align 4
  %15 = alloca i8, align 1
  %16 = alloca ptr, align 8
  %17 = alloca ptr, align 8
  %18 = alloca i32, align 4
  %19 = alloca i32, align 4
  %20 = alloca double, align 8
  %21 = alloca double, align 8
  %22 = alloca double, align 8
  %23 = call i32 @__kmpc_global_thread_num(ptr @3)
  %24 = getelementptr inbounds nuw { ptr, ptr }, ptr %11, i32 0, i32 0
  store ptr %2, ptr %24, align 8
  %25 = getelementptr inbounds nuw { ptr, ptr }, ptr %11, i32 0, i32 1
  store ptr %3, ptr %25, align 8
  %26 = getelementptr inbounds nuw { ptr, ptr }, ptr %12, i32 0, i32 0
  store ptr %4, ptr %26, align 8
  %27 = getelementptr inbounds nuw { ptr, ptr }, ptr %12, i32 0, i32 1
  store ptr %5, ptr %27, align 8
  store i32 %0, ptr %13, align 4, !tbaa !4
  store i32 %1, ptr %14, align 4, !tbaa !4
  %28 = zext i1 %7 to i8
  store i8 %28, ptr %15, align 1, !tbaa !8
  store ptr %8, ptr %16, align 8, !tbaa !10
  store ptr %9, ptr %17, align 8, !tbaa !10
  call void @llvm.lifetime.start.p0(i64 4, ptr %18) #3
  call void @llvm.lifetime.start.p0(i64 4, ptr %19) #3
  call void @llvm.lifetime.start.p0(i64 8, ptr %20) #3
  call void @llvm.lifetime.start.p0(i64 8, ptr %21) #3
  call void @llvm.lifetime.start.p0(i64 8, ptr %22) #3
  %29 = load i32, ptr %13, align 4, !tbaa !4
  %30 = load i32, ptr %14, align 4, !tbaa !4
  %31 = add nsw i32 %29, %30
  store i32 %31, ptr %18, align 4, !tbaa !4
  store double 0.000000e+00, ptr %22, align 8, !tbaa !13
  store double 0.000000e+00, ptr %21, align 8, !tbaa !13
  store double 0.000000e+00, ptr %20, align 8, !tbaa !13
  %32 = call noundef i32 @_Z20gmx_omp_nthreads_get17ModuleMultiThread(i32 noundef 0)
  call void @__kmpc_push_num_threads(ptr @3, i32 %23, i32 %32)
  call void (ptr, i32, ptr, ...) @__kmpc_fork_call(ptr @3, i32 7, ptr @_Z7calc_muiiN3gmx8ArrayRefIKNS_11BasicVectorIfEEEENS0_IKfEES6_bPdS7_.omp_outlined, ptr %18, ptr %13, ptr %20, ptr %12, ptr %11, ptr %21, ptr %22)
  %33 = load double, ptr %20, align 8, !tbaa !13
  %34 = load ptr, ptr %16, align 8, !tbaa !10
  %35 = getelementptr inbounds double, ptr %34, i64 0
  store double %33, ptr %35, align 8, !tbaa !13
  %36 = load double, ptr %21, align 8, !tbaa !13
  %37 = load ptr, ptr %16, align 8, !tbaa !10
  %38 = getelementptr inbounds double, ptr %37, i64 1
  store double %36, ptr %38, align 8, !tbaa !13
  %39 = load double, ptr %22, align 8, !tbaa !13
  %40 = load ptr, ptr %16, align 8, !tbaa !10
  %41 = getelementptr inbounds double, ptr %40, i64 2
  store double %39, ptr %41, align 8, !tbaa !13
  store i32 0, ptr %19, align 4, !tbaa !4
  br label %42

42:                                               ; preds = %52, %10
  %43 = load i32, ptr %19, align 4, !tbaa !4
  %44 = icmp slt i32 %43, 3
  br i1 %44, label %45, label %55

45:                                               ; preds = %42
  %46 = load ptr, ptr %16, align 8, !tbaa !10
  %47 = load i32, ptr %19, align 4, !tbaa !4
  %48 = sext i32 %47 to i64
  %49 = getelementptr inbounds double, ptr %46, i64 %48
  %50 = load double, ptr %49, align 8, !tbaa !13
  %51 = fmul double %50, 0x4048041A1EC6696C
  store double %51, ptr %49, align 8, !tbaa !13
  br label %52

52:                                               ; preds = %45
  %53 = load i32, ptr %19, align 4, !tbaa !4
  %54 = add nsw i32 %53, 1
  store i32 %54, ptr %19, align 4, !tbaa !4
  br label %42, !llvm.loop !15

55:                                               ; preds = %42
  %56 = load i8, ptr %15, align 1, !tbaa !8, !range !17, !noundef !18
  %57 = trunc i8 %56 to i1
  br i1 %57, label %58, label %72

58:                                               ; preds = %55
  store double 0.000000e+00, ptr %22, align 8, !tbaa !13
  store double 0.000000e+00, ptr %21, align 8, !tbaa !13
  store double 0.000000e+00, ptr %20, align 8, !tbaa !13
  %59 = call noundef i32 @_Z20gmx_omp_nthreads_get17ModuleMultiThread(i32 noundef 0)
  call void @__kmpc_push_num_threads(ptr @3, i32 %23, i32 %59)
  call void (ptr, i32, ptr, ...) @__kmpc_fork_call(ptr @3, i32 7, ptr @_Z7calc_muiiN3gmx8ArrayRefIKNS_11BasicVectorIfEEEENS0_IKfEES6_bPdS7_.omp_outlined.1, ptr %18, ptr %13, ptr %20, ptr %6, ptr %11, ptr %21, ptr %22)
  %60 = load double, ptr %20, align 8, !tbaa !13
  %61 = fmul double %60, 0x4048041A1EC6696C
  %62 = load ptr, ptr %17, align 8, !tbaa !10
  %63 = getelementptr inbounds double, ptr %62, i64 0
  store double %61, ptr %63, align 8, !tbaa !13
  %64 = load double, ptr %21, align 8, !tbaa !13
  %65 = fmul double %64, 0x4048041A1EC6696C
  %66 = load ptr, ptr %17, align 8, !tbaa !10
  %67 = getelementptr inbounds double, ptr %66, i64 1
  store double %65, ptr %67, align 8, !tbaa !13
  %68 = load double, ptr %22, align 8, !tbaa !13
  %69 = fmul double %68, 0x4048041A1EC6696C
  %70 = load ptr, ptr %17, align 8, !tbaa !10
  %71 = getelementptr inbounds double, ptr %70, i64 2
  store double %69, ptr %71, align 8, !tbaa !13
  br label %75

72:                                               ; preds = %55
  %73 = load ptr, ptr %16, align 8, !tbaa !10
  %74 = load ptr, ptr %17, align 8, !tbaa !10
  call void @_ZL9copy_dvecPKdPd(ptr noundef %73, ptr noundef %74)
  br label %75

75:                                               ; preds = %72, %58
  call void @llvm.lifetime.end.p0(i64 8, ptr %22) #3
  call void @llvm.lifetime.end.p0(i64 8, ptr %21) #3
  call void @llvm.lifetime.end.p0(i64 8, ptr %20) #3
  call void @llvm.lifetime.end.p0(i64 4, ptr %19) #3
  call void @llvm.lifetime.end.p0(i64 4, ptr %18) #3
  ret void
}