; Function Attrs: mustprogress uwtable
define void @_Z7calc_muiiN3gmx8ArrayRefIKNS_11BasicVectorIfEEEENS0_IKfEES6_bPdS7_(i32 noundef %0, i32 noundef %1, ptr %2, ptr %3, ptr %4, ptr %5, ptr noundef byval(%"class.gmx::ArrayRef.0") align 8 %6, i1 noundef zeroext %7, ptr noundef captures(none) initializes((0, 24)) %8, ptr noundef writeonly captures(none) %9) local_unnamed_addr #0 {
  %11 = alloca %"class.gmx::ArrayRef", align 8
  %12 = alloca %"class.gmx::ArrayRef.0", align 8
  %13 = alloca i32, align 4
  %14 = alloca i32, align 4
  %15 = alloca double, align 8
  %16 = alloca double, align 8
  %17 = alloca double, align 8
  %18 = tail call i32 @__kmpc_global_thread_num(ptr nonnull @3)
  store ptr %2, ptr %11, align 8
  %19 = getelementptr inbounds nuw i8, ptr %11, i64 8
  store ptr %3, ptr %19, align 8
  store ptr %4, ptr %12, align 8
  %20 = getelementptr inbounds nuw i8, ptr %12, i64 8
  store ptr %5, ptr %20, align 8
  store i32 %0, ptr %13, align 4, !tbaa !4
  call void @llvm.lifetime.start.p0(i64 4, ptr nonnull %14) #3
  call void @llvm.lifetime.start.p0(i64 8, ptr nonnull %15) #3
  call void @llvm.lifetime.start.p0(i64 8, ptr nonnull %16) #3
  call void @llvm.lifetime.start.p0(i64 8, ptr nonnull %17) #3
  %21 = add nsw i32 %1, %0
  store i32 %21, ptr %14, align 4, !tbaa !4
  store double 0.000000e+00, ptr %17, align 8, !tbaa !8
  store double 0.000000e+00, ptr %16, align 8, !tbaa !8
  store double 0.000000e+00, ptr %15, align 8, !tbaa !8
  %22 = tail call noundef i32 @_Z20gmx_omp_nthreads_get17ModuleMultiThread(i32 noundef 0)
  tail call void @__kmpc_push_num_threads(ptr nonnull @3, i32 %18, i32 %22)
  call void (ptr, i32, ptr, ...) @__kmpc_fork_call(ptr nonnull @3, i32 7, ptr nonnull @_Z7calc_muiiN3gmx8ArrayRefIKNS_11BasicVectorIfEEEENS0_IKfEES6_bPdS7_.omp_outlined, ptr nonnull %14, ptr nonnull %13, ptr nonnull %15, ptr nonnull %12, ptr nonnull %11, ptr nonnull %16, ptr nonnull %17)
  %23 = load double, ptr %15, align 8, !tbaa !8
  store double %23, ptr %8, align 8, !tbaa !8
  %24 = load double, ptr %16, align 8, !tbaa !8
  %25 = getelementptr inbounds nuw i8, ptr %8, i64 8
  store double %24, ptr %25, align 8, !tbaa !8
  %26 = load double, ptr %17, align 8, !tbaa !8
  %27 = getelementptr inbounds nuw i8, ptr %8, i64 16
  store double %26, ptr %27, align 8, !tbaa !8
  br label %28

28:                                               ; preds = %10, %28
  %indvars.iv = phi i64 [ 0, %10 ], [ %indvars.iv.next, %28 ]
  %29 = getelementptr inbounds nuw double, ptr %8, i64 %indvars.iv
  %30 = load double, ptr %29, align 8, !tbaa !8
  %31 = fmul double %30, 0x4048041A1EC6696C
  store double %31, ptr %29, align 8, !tbaa !8
  %indvars.iv.next = add nuw nsw i64 %indvars.iv, 1
  %exitcond.not = icmp eq i64 %indvars.iv.next, 3
  br i1 %exitcond.not, label %32, label %28, !llvm.loop !10

32:                                               ; preds = %28
  br i1 %7, label %33, label %42

33:                                               ; preds = %32
  store double 0.000000e+00, ptr %17, align 8, !tbaa !8
  store double 0.000000e+00, ptr %16, align 8, !tbaa !8
  store double 0.000000e+00, ptr %15, align 8, !tbaa !8
  %34 = call noundef i32 @_Z20gmx_omp_nthreads_get17ModuleMultiThread(i32 noundef 0)
  call void @__kmpc_push_num_threads(ptr nonnull @3, i32 %18, i32 %34)
  call void (ptr, i32, ptr, ...) @__kmpc_fork_call(ptr nonnull @3, i32 7, ptr nonnull @_Z7calc_muiiN3gmx8ArrayRefIKNS_11BasicVectorIfEEEENS0_IKfEES6_bPdS7_.omp_outlined.1, ptr nonnull %14, ptr nonnull %13, ptr nonnull %15, ptr nonnull %6, ptr nonnull %11, ptr nonnull %16, ptr nonnull %17)
  %35 = load double, ptr %15, align 8, !tbaa !8
  %36 = fmul double %35, 0x4048041A1EC6696C
  store double %36, ptr %9, align 8, !tbaa !8
  %37 = load double, ptr %16, align 8, !tbaa !8
  %38 = fmul double %37, 0x4048041A1EC6696C
  %39 = getelementptr inbounds nuw i8, ptr %9, i64 8
  store double %38, ptr %39, align 8, !tbaa !8
  %40 = load double, ptr %17, align 8, !tbaa !8
  %41 = fmul double %40, 0x4048041A1EC6696C
  br label %47

42:                                               ; preds = %32
  %43 = load double, ptr %8, align 8, !tbaa !8
  store double %43, ptr %9, align 8, !tbaa !8
  %44 = load double, ptr %25, align 8, !tbaa !8
  %45 = getelementptr inbounds nuw i8, ptr %9, i64 8
  store double %44, ptr %45, align 8, !tbaa !8
  %46 = load double, ptr %27, align 8, !tbaa !8
  br label %47

47:                                               ; preds = %42, %33
  %.sink = phi double [ %41, %33 ], [ %46, %42 ]
  %48 = getelementptr inbounds nuw i8, ptr %9, i64 16
  store double %.sink, ptr %48, align 8, !tbaa !8
  call void @llvm.lifetime.end.p0(i64 8, ptr nonnull %17) #3
  call void @llvm.lifetime.end.p0(i64 8, ptr nonnull %16) #3
  call void @llvm.lifetime.end.p0(i64 8, ptr nonnull %15) #3
  call void @llvm.lifetime.end.p0(i64 4, ptr nonnull %14) #3
  ret void
}